target datalayout = "e-m:e-p270:32:32-p271:32:32-p272:64:64-i64:64-i128:128-f80:128-n8:16:32:64-S128"
target triple = "x86_64-pc-linux-gnu"

%struct.vorbis_context_s = type { ptr, %struct.GetBitContext, %struct.VorbisDSPContext, ptr, [2 x ptr], [2 x ptr], i8, i32, i8, i32, i32, i32, i32, [2 x i32], [2 x ptr], i16, ptr, i8, ptr, i8, ptr, i8, ptr, i8, ptr, i8, i8, ptr, ptr }
%struct.GetBitContext = type { ptr, ptr, i32, i32, i32 }
%struct.VorbisDSPContext = type { ptr }
%struct.vorbis_residue = type { i16, i32, i32, i32, i8, i8, [64 x [8 x i16]], i8, i16, ptr }
%struct.vorbis_codebook = type { i8, i8, i8, %struct.VLC, ptr, i32 }
%struct.VLC = type { i32, ptr, i32, i32 }
%struct.vorbis_floor = type { i8, ptr, %union.vorbis_floor_u }
%union.vorbis_floor_u = type { %struct.vorbis_floor1_s }
%struct.vorbis_floor1_s = type { i8, [32 x i8], [16 x i8], [16 x i8], [16 x i8], [16 x [8 x i16]], i8, i16, ptr }
%struct.vorbis_floor0_s = type { i8, i16, i16, [2 x ptr], [2 x i32], i8, i8, i8, ptr, ptr }
%struct.vorbis_mapping = type { i8, i16, ptr, ptr, ptr, [16 x i8], [16 x i8] }

; Function Attrs: nounwind uwtable
define internal void @vorbis_free(ptr noundef %0) #1 {
  %2 = alloca ptr, align 8
  %3 = alloca i32, align 4
  store ptr %0, ptr %2, align 8, !tbaa !29
  call void @llvm.lifetime.start.p0(i64 4, ptr %3) #13
  %4 = load ptr, ptr %2, align 8, !tbaa !29
  %5 = getelementptr inbounds nuw %struct.vorbis_context_s, ptr %4, i32 0, i32 27
  call void @av_freep(ptr noundef %5)
  %6 = load ptr, ptr %2, align 8, !tbaa !29
  %7 = getelementptr inbounds nuw %struct.vorbis_context_s, ptr %6, i32 0, i32 28
  call void @av_freep(ptr noundef %7)
  %8 = load ptr, ptr %2, align 8, !tbaa !29
  %9 = getelementptr inbounds nuw %struct.vorbis_context_s, ptr %8, i32 0, i32 3
  call void @av_freep(ptr noundef %9)
  %10 = load ptr, ptr %2, align 8, !tbaa !29
  %11 = getelementptr inbounds nuw %struct.vorbis_context_s, ptr %10, i32 0, i32 20
  %12 = load ptr, ptr %11, align 8, !tbaa !97
  %13 = icmp ne ptr %12, null
  br i1 %13, label %14, label %34

14:                                               ; preds = %1
  store i32 0, ptr %3, align 4, !tbaa !34
  br label %15

15:                                               ; preds = %30, %14
  %16 = load i32, ptr %3, align 4, !tbaa !34
  %17 = load ptr, ptr %2, align 8, !tbaa !29
  %18 = getelementptr inbounds nuw %struct.vorbis_context_s, ptr %17, i32 0, i32 19
  %19 = load i8, ptr %18, align 8, !tbaa !98
  %20 = zext i8 %19 to i32
  %21 = icmp slt i32 %16, %20
  br i1 %21, label %22, label %33

22:                                               ; preds = %15
  %23 = load ptr, ptr %2, align 8, !tbaa !29
  %24 = getelementptr inbounds nuw %struct.vorbis_context_s, ptr %23, i32 0, i32 20
  %25 = load ptr, ptr %24, align 8, !tbaa !97
  %26 = load i32, ptr %3, align 4, !tbaa !34
  %27 = sext i32 %26 to i64
  %28 = getelementptr inbounds %struct.vorbis_residue, ptr %25, i64 %27
  %29 = getelementptr inbounds nuw %struct.vorbis_residue, ptr %28, i32 0, i32 9
  call void @av_freep(ptr noundef %29)
  br label %30

30:                                               ; preds = %22
  %31 = load i32, ptr %3, align 4, !tbaa !34
  %32 = add nsw i32 %31, 1
  store i32 %32, ptr %3, align 4, !tbaa !34
  br label %15, !llvm.loop !99

33:                                               ; preds = %15
  br label %34

34:                                               ; preds = %33, %1
  %35 = load ptr, ptr %2, align 8, !tbaa !29
  %36 = getelementptr inbounds nuw %struct.vorbis_context_s, ptr %35, i32 0, i32 20
  call void @av_freep(ptr noundef %36)
  %37 = load ptr, ptr %2, align 8, !tbaa !29
  %38 = getelementptr inbounds nuw %struct.vorbis_context_s, ptr %37, i32 0, i32 24
  call void @av_freep(ptr noundef %38)
  %39 = load ptr, ptr %2, align 8, !tbaa !29
  %40 = getelementptr inbounds nuw %struct.vorbis_context_s, ptr %39, i32 0, i32 4
  %41 = getelementptr inbounds [2 x ptr], ptr %40, i64 0, i64 0
  call void @av_tx_uninit(ptr noundef %41)
  %42 = load ptr, ptr %2, align 8, !tbaa !29
  %43 = getelementptr inbounds nuw %struct.vorbis_context_s, ptr %42, i32 0, i32 4
  %44 = getelementptr inbounds [2 x ptr], ptr %43, i64 0, i64 1
  call void @av_tx_uninit(ptr noundef %44)
  %45 = load ptr, ptr %2, align 8, !tbaa !29
  %46 = getelementptr inbounds nuw %struct.vorbis_context_s, ptr %45, i32 0, i32 16
  %47 = load ptr, ptr %46, align 8, !tbaa !100
  %48 = icmp ne ptr %47, null
  br i1 %48, label %49, label %76

49:                                               ; preds = %34
  store i32 0, ptr %3, align 4, !tbaa !34
  br label %50

50:                                               ; preds = %72, %49
  %51 = load i32, ptr %3, align 4, !tbaa !34
  %52 = load ptr, ptr %2, align 8, !tbaa !29
  %53 = getelementptr inbounds nuw %struct.vorbis_context_s, ptr %52, i32 0, i32 15
  %54 = load i16, ptr %53, align 8, !tbaa !101
  %55 = zext i16 %54 to i32
  %56 = icmp slt i32 %51, %55
  br i1 %56, label %57, label %75

57:                                               ; preds = %50
  %58 = load ptr, ptr %2, align 8, !tbaa !29
  %59 = getelementptr inbounds nuw %struct.vorbis_context_s, ptr %58, i32 0, i32 16
  %60 = load ptr, ptr %59, align 8, !tbaa !100
  %61 = load i32, ptr %3, align 4, !tbaa !34
  %62 = sext i32 %61 to i64
  %63 = getelementptr inbounds %struct.vorbis_codebook, ptr %60, i64 %62
  %64 = getelementptr inbounds nuw %struct.vorbis_codebook, ptr %63, i32 0, i32 4
  call void @av_freep(ptr noundef %64)
  %65 = load ptr, ptr %2, align 8, !tbaa !29
  %66 = getelementptr inbounds nuw %struct.vorbis_context_s, ptr %65, i32 0, i32 16
  %67 = load ptr, ptr %66, align 8, !tbaa !100
  %68 = load i32, ptr %3, align 4, !tbaa !34
  %69 = sext i32 %68 to i64
  %70 = getelementptr inbounds %struct.vorbis_codebook, ptr %67, i64 %69
  %71 = getelementptr inbounds nuw %struct.vorbis_codebook, ptr %70, i32 0, i32 3
  call void @ff_vlc_free(ptr noundef %71)
  br label %72

72:                                               ; preds = %57
  %73 = load i32, ptr %3, align 4, !tbaa !34
  %74 = add nsw i32 %73, 1
  store i32 %74, ptr %3, align 4, !tbaa !34
  br label %50, !llvm.loop !102

75:                                               ; preds = %50
  br label %76

76:                                               ; preds = %75, %34
  %77 = load ptr, ptr %2, align 8, !tbaa !29
  %78 = getelementptr inbounds nuw %struct.vorbis_context_s, ptr %77, i32 0, i32 16
  call void @av_freep(ptr noundef %78)
  %79 = load ptr, ptr %2, align 8, !tbaa !29
  %80 = getelementptr inbounds nuw %struct.vorbis_context_s, ptr %79, i32 0, i32 18
  %81 = load ptr, ptr %80, align 8, !tbaa !103
  %82 = icmp ne ptr %81, null
  br i1 %82, label %83, label %151

83:                                               ; preds = %76
  store i32 0, ptr %3, align 4, !tbaa !34
  br label %84

84:                                               ; preds = %147, %83
  %85 = load i32, ptr %3, align 4, !tbaa !34
  %86 = load ptr, ptr %2, align 8, !tbaa !29
  %87 = getelementptr inbounds nuw %struct.vorbis_context_s, ptr %86, i32 0, i32 17
  %88 = load i8, ptr %87, align 8, !tbaa !104
  %89 = zext i8 %88 to i32
  %90 = icmp slt i32 %85, %89
  br i1 %90, label %91, label %150

91:                                               ; preds = %84
  %92 = load ptr, ptr %2, align 8, !tbaa !29
  %93 = getelementptr inbounds nuw %struct.vorbis_context_s, ptr %92, i32 0, i32 18
  %94 = load ptr, ptr %93, align 8, !tbaa !103
  %95 = load i32, ptr %3, align 4, !tbaa !34
  %96 = sext i32 %95 to i64
  %97 = getelementptr inbounds %struct.vorbis_floor, ptr %94, i64 %96
  %98 = getelementptr inbounds nuw %struct.vorbis_floor, ptr %97, i32 0, i32 0
  %99 = load i8, ptr %98, align 8, !tbaa !105
  %100 = zext i8 %99 to i32
  %101 = icmp eq i32 %100, 0
  br i1 %101, label %102, label %137

102:                                              ; preds = %91
  %103 = load ptr, ptr %2, align 8, !tbaa !29
  %104 = getelementptr inbounds nuw %struct.vorbis_context_s, ptr %103, i32 0, i32 18
  %105 = load ptr, ptr %104, align 8, !tbaa !103
  %106 = load i32, ptr %3, align 4, !tbaa !34
  %107 = sext i32 %106 to i64
  %108 = getelementptr inbounds %struct.vorbis_floor, ptr %105, i64 %107
  %109 = getelementptr inbounds nuw %struct.vorbis_floor, ptr %108, i32 0, i32 2
  %110 = getelementptr inbounds nuw %struct.vorbis_floor0_s, ptr %109, i32 0, i32 3
  %111 = getelementptr inbounds [2 x ptr], ptr %110, i64 0, i64 0
  call void @av_freep(ptr noundef %111)
  %112 = load ptr, ptr %2, align 8, !tbaa !29
  %113 = getelementptr inbounds nuw %struct.vorbis_context_s, ptr %112, i32 0, i32 18
  %114 = load ptr, ptr %113, align 8, !tbaa !103
  %115 = load i32, ptr %3, align 4, !tbaa !34
  %116 = sext i32 %115 to i64
  %117 = getelementptr inbounds %struct.vorbis_floor, ptr %114, i64 %116
  %118 = getelementptr inbounds nuw %struct.vorbis_floor, ptr %117, i32 0, i32 2
  %119 = getelementptr inbounds nuw %struct.vorbis_floor0_s, ptr %118, i32 0, i32 3
  %120 = getelementptr inbounds [2 x ptr], ptr %119, i64 0, i64 1
  call void @av_freep(ptr noundef %120)
  %121 = load ptr, ptr %2, align 8, !tbaa !29
  %122 = getelementptr inbounds nuw %struct.vorbis_context_s, ptr %121, i32 0, i32 18
  %123 = load ptr, ptr %122, align 8, !tbaa !103
  %124 = load i32, ptr %3, align 4, !tbaa !34
  %125 = sext i32 %124 to i64
  %126 = getelementptr inbounds %struct.vorbis_floor, ptr %123, i64 %125
  %127 = getelementptr inbounds nuw %struct.vorbis_floor, ptr %126, i32 0, i32 2
  %128 = getelementptr inbounds nuw %struct.vorbis_floor0_s, ptr %127, i32 0, i32 8
  call void @av_freep(ptr noundef %128)
  %129 = load ptr, ptr %2, align 8, !tbaa !29
  %130 = getelementptr inbounds nuw %struct.vorbis_context_s, ptr %129, i32 0, i32 18
  %131 = load ptr, ptr %130, align 8, !tbaa !103
  %132 = load i32, ptr %3, align 4, !tbaa !34
  %133 = sext i32 %132 to i64
  %134 = getelementptr inbounds %struct.vorbis_floor, ptr %131, i64 %133
  %135 = getelementptr inbounds nuw %struct.vorbis_floor, ptr %134, i32 0, i32 2
  %136 = getelementptr inbounds nuw %struct.vorbis_floor0_s, ptr %135, i32 0, i32 9
  call void @av_freep(ptr noundef %136)
  br label %146

137:                                              ; preds = %91
  %138 = load ptr, ptr %2, align 8, !tbaa !29
  %139 = getelementptr inbounds nuw %struct.vorbis_context_s, ptr %138, i32 0, i32 18
  %140 = load ptr, ptr %139, align 8, !tbaa !103
  %141 = load i32, ptr %3, align 4, !tbaa !34
  %142 = sext i32 %141 to i64
  %143 = getelementptr inbounds %struct.vorbis_floor, ptr %140, i64 %142
  %144 = getelementptr inbounds nuw %struct.vorbis_floor, ptr %143, i32 0, i32 2
  %145 = getelementptr inbounds nuw %struct.vorbis_floor1_s, ptr %144, i32 0, i32 8
  call void @av_freep(ptr noundef %145)
  br label %146

146:                                              ; preds = %137, %102
  br label %147

147:                                              ; preds = %146
  %148 = load i32, ptr %3, align 4, !tbaa !34
  %149 = add nsw i32 %148, 1
  store i32 %149, ptr %3, align 4, !tbaa !34
  br label %84, !llvm.loop !107

150:                                              ; preds = %84
  br label %151

151:                                              ; preds = %150, %76
  %152 = load ptr, ptr %2, align 8, !tbaa !29
  %153 = getelementptr inbounds nuw %struct.vorbis_context_s, ptr %152, i32 0, i32 18
  call void @av_freep(ptr noundef %153)
  %154 = load ptr, ptr %2, align 8, !tbaa !29
  %155 = getelementptr inbounds nuw %struct.vorbis_context_s, ptr %154, i32 0, i32 22
  %156 = load ptr, ptr %155, align 8, !tbaa !108
  %157 = icmp ne ptr %156, null
  br i1 %157, label %158, label %192

158:                                              ; preds = %151
  store i32 0, ptr %3, align 4, !tbaa !34
  br label %159

159:                                              ; preds = %188, %158
  %160 = load i32, ptr %3, align 4, !tbaa !34
  %161 = load ptr, ptr %2, align 8, !tbaa !29
  %162 = getelementptr inbounds nuw %struct.vorbis_context_s, ptr %161, i32 0, i32 21
  %163 = load i8, ptr %162, align 8, !tbaa !109
  %164 = zext i8 %163 to i32
  %165 = icmp slt i32 %160, %164
  br i1 %165, label %166, label %191

166:                                              ; preds = %159
  %167 = load ptr, ptr %2, align 8, !tbaa !29
  %168 = getelementptr inbounds nuw %struct.vorbis_context_s, ptr %167, i32 0, i32 22
  %169 = load ptr, ptr %168, align 8, !tbaa !108
  %170 = load i32, ptr %3, align 4, !tbaa !34
  %171 = sext i32 %170 to i64
  %172 = getelementptr inbounds %struct.vorbis_mapping, ptr %169, i64 %171
  %173 = getelementptr inbounds nuw %struct.vorbis_mapping, ptr %172, i32 0, i32 2
  call void @av_freep(ptr noundef %173)
  %174 = load ptr, ptr %2, align 8, !tbaa !29
  %175 = getelementptr inbounds nuw %struct.vorbis_context_s, ptr %174, i32 0, i32 22
  %176 = load ptr, ptr %175, align 8, !tbaa !108
  %177 = load i32, ptr %3, align 4, !tbaa !34
  %178 = sext i32 %177 to i64
  %179 = getelementptr inbounds %struct.vorbis_mapping, ptr %176, i64 %178
  %180 = getelementptr inbounds nuw %struct.vorbis_mapping, ptr %179, i32 0, i32 3
  call void @av_freep(ptr noundef %180)
  %181 = load ptr, ptr %2, align 8, !tbaa !29
  %182 = getelementptr inbounds nuw %struct.vorbis_context_s, ptr %181, i32 0, i32 22
  %183 = load ptr, ptr %182, align 8, !tbaa !108
  %184 = load i32, ptr %3, align 4, !tbaa !34
  %185 = sext i32 %184 to i64
  %186 = getelementptr inbounds %struct.vorbis_mapping, ptr %183, i64 %185
  %187 = getelementptr inbounds nuw %struct.vorbis_mapping, ptr %186, i32 0, i32 4
  call void @av_freep(ptr noundef %187)
  br label %188

188:                                              ; preds = %166
  %189 = load i32, ptr %3, align 4, !tbaa !34
  %190 = add nsw i32 %189, 1
  store i32 %190, ptr %3, align 4, !tbaa !34
  br label %159, !llvm.loop !110

191:                                              ; preds = %159
  br label %192

192:                                              ; preds = %191, %151
  %193 = load ptr, ptr %2, align 8, !tbaa !29
  %194 = getelementptr inbounds nuw %struct.vorbis_context_s, ptr %193, i32 0, i32 22
  call void @av_freep(ptr noundef %194)
  call void @llvm.lifetime.end.p0(i64 4, ptr %3) #13
  ret void
}