; Function Attrs: nounwind uwtable
define internal fastcc void @vorbis_free(ptr noundef %0) unnamed_addr #1 {
  %2 = getelementptr inbounds nuw i8, ptr %0, i64 232
  tail call void @av_freep(ptr noundef nonnull %2) #11
  %3 = getelementptr inbounds nuw i8, ptr %0, i64 240
  tail call void @av_freep(ptr noundef nonnull %3) #11
  %4 = getelementptr inbounds nuw i8, ptr %0, i64 48
  tail call void @av_freep(ptr noundef nonnull %4) #11
  %5 = getelementptr inbounds nuw i8, ptr %0, i64 184
  %6 = load ptr, ptr %5, align 8, !tbaa !91
  %.not = icmp eq ptr %6, null
  br i1 %.not, label %.loopexit57, label %.preheader56

.preheader56:                                     ; preds = %1
  %7 = getelementptr inbounds nuw i8, ptr %0, i64 176
  %8 = load i8, ptr %7, align 8, !tbaa !159
  %.not65 = icmp eq i8 %8, 0
  br i1 %.not65, label %.loopexit57, label %.lr.ph

.lr.ph:                                           ; preds = %.preheader56, %.lr.ph
  %indvars.iv = phi i64 [ %indvars.iv.next, %.lr.ph ], [ 0, %.preheader56 ]
  %9 = load ptr, ptr %5, align 8, !tbaa !91
  %10 = getelementptr inbounds nuw %struct.vorbis_residue, ptr %9, i64 %indvars.iv, i32 9
  tail call void @av_freep(ptr noundef nonnull %10) #11
  %indvars.iv.next = add nuw nsw i64 %indvars.iv, 1
  %11 = load i8, ptr %7, align 8, !tbaa !159
  %12 = zext i8 %11 to i64
  %13 = icmp samesign ult i64 %indvars.iv.next, %12
  br i1 %13, label %.lr.ph, label %.loopexit57, !llvm.loop !160

.loopexit57:                                      ; preds = %.lr.ph, %.preheader56, %1
  tail call void @av_freep(ptr noundef nonnull %5) #11
  %14 = getelementptr inbounds nuw i8, ptr %0, i64 216
  tail call void @av_freep(ptr noundef nonnull %14) #11
  %15 = getelementptr inbounds nuw i8, ptr %0, i64 56
  tail call void @av_tx_uninit(ptr noundef nonnull %15) #11
  %16 = getelementptr inbounds nuw i8, ptr %0, i64 64
  tail call void @av_tx_uninit(ptr noundef nonnull %16) #11
  %17 = getelementptr inbounds nuw i8, ptr %0, i64 152
  %18 = load ptr, ptr %17, align 8, !tbaa !94
  %.not49 = icmp eq ptr %18, null
  br i1 %.not49, label %.loopexit55, label %.preheader54

.preheader54:                                     ; preds = %.loopexit57
  %19 = getelementptr inbounds nuw i8, ptr %0, i64 144
  %20 = load i16, ptr %19, align 8, !tbaa !161
  %.not66 = icmp eq i16 %20, 0
  br i1 %.not66, label %.loopexit55, label %.lr.ph60

.lr.ph60:                                         ; preds = %.preheader54, %.lr.ph60
  %indvars.iv70 = phi i64 [ %indvars.iv.next71, %.lr.ph60 ], [ 0, %.preheader54 ]
  %21 = load ptr, ptr %17, align 8, !tbaa !94
  %22 = getelementptr inbounds nuw %struct.vorbis_codebook, ptr %21, i64 %indvars.iv70, i32 4
  tail call void @av_freep(ptr noundef nonnull %22) #11
  %23 = load ptr, ptr %17, align 8, !tbaa !94
  %24 = getelementptr inbounds nuw %struct.vorbis_codebook, ptr %23, i64 %indvars.iv70, i32 3
  tail call void @ff_vlc_free(ptr noundef nonnull %24) #11
  %indvars.iv.next71 = add nuw nsw i64 %indvars.iv70, 1
  %25 = load i16, ptr %19, align 8, !tbaa !161
  %26 = zext i16 %25 to i64
  %27 = icmp samesign ult i64 %indvars.iv.next71, %26
  br i1 %27, label %.lr.ph60, label %.loopexit55, !llvm.loop !162

.loopexit55:                                      ; preds = %.lr.ph60, %.preheader54, %.loopexit57
  tail call void @av_freep(ptr noundef nonnull %17) #11
  %28 = getelementptr inbounds nuw i8, ptr %0, i64 168
  %29 = load ptr, ptr %28, align 8, !tbaa !81
  %.not50 = icmp eq ptr %29, null
  br i1 %.not50, label %.loopexit53, label %.preheader52

.preheader52:                                     ; preds = %.loopexit55
  %30 = getelementptr inbounds nuw i8, ptr %0, i64 160
  %31 = load i8, ptr %30, align 8, !tbaa !163
  %.not67 = icmp eq i8 %31, 0
  br i1 %.not67, label %.loopexit53, label %.lr.ph62

.lr.ph62:                                         ; preds = %.preheader52, %46
  %indvars.iv73 = phi i64 [ %indvars.iv.next74, %46 ], [ 0, %.preheader52 ]
  %32 = load ptr, ptr %28, align 8, !tbaa !81
  %33 = getelementptr inbounds nuw %struct.vorbis_floor, ptr %32, i64 %indvars.iv73
  %34 = load i8, ptr %33, align 8, !tbaa !164
  %35 = icmp eq i8 %34, 0
  br i1 %35, label %36, label %44

36:                                               ; preds = %.lr.ph62
  %37 = getelementptr inbounds nuw i8, ptr %33, i64 24
  tail call void @av_freep(ptr noundef nonnull %37) #11
  %38 = load ptr, ptr %28, align 8, !tbaa !81
  %39 = getelementptr inbounds nuw %struct.vorbis_floor, ptr %38, i64 %indvars.iv73, i32 2, i32 0, i32 1, i64 15
  tail call void @av_freep(ptr noundef nonnull %39) #11
  %40 = load ptr, ptr %28, align 8, !tbaa !81
  %41 = getelementptr inbounds nuw %struct.vorbis_floor, ptr %40, i64 %indvars.iv73, i32 2, i32 0, i32 2, i64 7
  tail call void @av_freep(ptr noundef nonnull %41) #11
  %42 = load ptr, ptr %28, align 8, !tbaa !81
  %43 = getelementptr inbounds nuw %struct.vorbis_floor, ptr %42, i64 %indvars.iv73, i32 2, i32 0, i32 2, i64 15
  br label %46

44:                                               ; preds = %.lr.ph62
  %45 = getelementptr inbounds nuw i8, ptr %33, i64 360
  br label %46

46:                                               ; preds = %36, %44
  %.sink = phi ptr [ %43, %36 ], [ %45, %44 ]
  tail call void @av_freep(ptr noundef nonnull %.sink) #11
  %indvars.iv.next74 = add nuw nsw i64 %indvars.iv73, 1
  %47 = load i8, ptr %30, align 8, !tbaa !163
  %48 = zext i8 %47 to i64
  %49 = icmp samesign ult i64 %indvars.iv.next74, %48
  br i1 %49, label %.lr.ph62, label %.loopexit53, !llvm.loop !165

.loopexit53:                                      ; preds = %46, %.preheader52, %.loopexit55
  tail call void @av_freep(ptr noundef nonnull %28) #11
  %50 = getelementptr inbounds nuw i8, ptr %0, i64 200
  %51 = load ptr, ptr %50, align 8, !tbaa !74
  %.not51 = icmp eq ptr %51, null
  br i1 %.not51, label %.loopexit, label %.preheader

.preheader:                                       ; preds = %.loopexit53
  %52 = getelementptr inbounds nuw i8, ptr %0, i64 192
  %53 = load i8, ptr %52, align 8, !tbaa !166
  %.not68 = icmp eq i8 %53, 0
  br i1 %.not68, label %.loopexit, label %.lr.ph64

.lr.ph64:                                         ; preds = %.preheader, %.lr.ph64
  %indvars.iv76 = phi i64 [ %indvars.iv.next77, %.lr.ph64 ], [ 0, %.preheader ]
  %54 = load ptr, ptr %50, align 8, !tbaa !74
  %55 = getelementptr inbounds nuw %struct.vorbis_mapping, ptr %54, i64 %indvars.iv76, i32 2
  tail call void @av_freep(ptr noundef nonnull %55) #11
  %56 = load ptr, ptr %50, align 8, !tbaa !74
  %57 = getelementptr inbounds nuw %struct.vorbis_mapping, ptr %56, i64 %indvars.iv76, i32 3
  tail call void @av_freep(ptr noundef nonnull %57) #11
  %58 = load ptr, ptr %50, align 8, !tbaa !74
  %59 = getelementptr inbounds nuw %struct.vorbis_mapping, ptr %58, i64 %indvars.iv76, i32 4
  tail call void @av_freep(ptr noundef nonnull %59) #11
  %indvars.iv.next77 = add nuw nsw i64 %indvars.iv76, 1
  %60 = load i8, ptr %52, align 8, !tbaa !166
  %61 = zext i8 %60 to i64
  %62 = icmp samesign ult i64 %indvars.iv.next77, %61
  br i1 %62, label %.lr.ph64, label %.loopexit, !llvm.loop !167

.loopexit:                                        ; preds = %.lr.ph64, %.preheader, %.loopexit53
  tail call void @av_freep(ptr noundef nonnull %50) #11
  ret void
}